; Function Attrs: mustprogress uwtable
define hidden void @_ZN29CleanImmediately_logging_Test8TestBodyEv(ptr nocapture nonnull readnone align 8 %0) unnamed_addr #0 align 2 personality ptr @__gxx_personality_v0 {
  %2 = alloca %"class.std::chrono::duration", align 8
  %3 = alloca %"class.google::LogMessage", align 8
  tail call void @_ZN6google23SetLogFilenameExtensionEPKc(ptr noundef nonnull @.str.26)
  store i64 0, ptr %2, align 8
  call void @_ZN6google16EnableLogCleanerERKNSt6chrono8durationIlSt5ratioILl60ELl1EEEE(ptr noundef nonnull align 8 dereferenceable(8) %2)
  br label %4

4:                                                ; preds = %1, %8
  %.03 = phi i32 [ 0, %1 ], [ %9, %8 ]
  call void @_ZN6google10LogMessageC1EPKci(ptr noundef nonnull align 8 dereferenceable(96) %3, ptr noundef nonnull @.str.25, i32 noundef 63)
  %5 = invoke noundef nonnull align 8 dereferenceable(8) ptr @_ZN6google10LogMessage6streamEv(ptr noundef nonnull align 8 dereferenceable(96) %3)
          to label %6 unwind label %10

6:                                                ; preds = %4
  %7 = invoke noundef nonnull align 8 dereferenceable(8) ptr @_ZStlsISt11char_traitsIcEERSt13basic_ostreamIcT_ES5_PKc(ptr noundef nonnull align 8 dereferenceable(8) %5, ptr noundef nonnull @.str.27)
          to label %8 unwind label %10

8:                                                ; preds = %6
  call void @_ZN6google10LogMessageD1Ev(ptr noundef nonnull align 8 dereferenceable(96) %3)
  %9 = add nuw nsw i32 %.03, 1
  %exitcond.not = icmp eq i32 %9, 1000
  br i1 %exitcond.not, label %12, label %4, !llvm.loop !5

10:                                               ; preds = %6, %4
  %11 = landingpad { ptr, i32 }
          cleanup
  invoke void @_ZN6google10LogMessageD1Ev(ptr noundef nonnull align 8 dereferenceable(96) %3)
          to label %13 unwind label %14

12:                                               ; preds = %8
  call void @_ZN6google17DisableLogCleanerEv()
  ret void

13:                                               ; preds = %10
  resume { ptr, i32 } %11

14:                                               ; preds = %10
  %15 = landingpad { ptr, i32 }
          catch ptr null
  %16 = extractvalue { ptr, i32 } %15, 0
  call void @__clang_call_terminate(ptr %16) #25
  unreachable
}